target datalayout = "e-m:e-p270:32:32-p271:32:32-p272:64:64-i64:64-i128:128-f80:128-n8:16:32:64-S128"
target triple = "x86_64-pc-linux-gnu"

%struct.Dch_Cla_t_ = type { ptr, ptr, ptr, i32, i32, i32, ptr, ptr, ptr, ptr, ptr, ptr, ptr, ptr }
%struct.Aig_Obj_t_ = type { %union.anon, ptr, ptr, i64, i32, i32, %union.anon.0 }
%union.anon = type { ptr }
%union.anon.0 = type { ptr }

; Function Attrs: nounwind uwtable
define ptr @Dch_ClassesReadClass(ptr noundef %0, ptr noundef %1, ptr noundef %2) #0 {
  %4 = alloca ptr, align 8
  %5 = alloca ptr, align 8
  %6 = alloca ptr, align 8
  store ptr %0, ptr %4, align 8, !tbaa !8
  store ptr %1, ptr %5, align 8, !tbaa !44
  store ptr %2, ptr %6, align 8, !tbaa !45
  %7 = load ptr, ptr %4, align 8, !tbaa !8
  %8 = getelementptr inbounds nuw %struct.Dch_Cla_t_, ptr %7, i32 0, i32 2
  %9 = load ptr, ptr %8, align 8, !tbaa !18
  %10 = load ptr, ptr %5, align 8, !tbaa !44
  %11 = getelementptr inbounds nuw %struct.Aig_Obj_t_, ptr %10, i32 0, i32 5
  %12 = load i32, ptr %11, align 4, !tbaa !46
  %13 = sext i32 %12 to i64
  %14 = getelementptr inbounds i32, ptr %9, i64 %13
  %15 = load i32, ptr %14, align 4, !tbaa !31
  %16 = load ptr, ptr %6, align 8, !tbaa !45
  store i32 %15, ptr %16, align 4, !tbaa !31
  %17 = load ptr, ptr %4, align 8, !tbaa !8
  %18 = getelementptr inbounds nuw %struct.Dch_Cla_t_, ptr %17, i32 0, i32 1
  %19 = load ptr, ptr %18, align 8, !tbaa !17
  %20 = load ptr, ptr %5, align 8, !tbaa !44
  %21 = getelementptr inbounds nuw %struct.Aig_Obj_t_, ptr %20, i32 0, i32 5
  %22 = load i32, ptr %21, align 4, !tbaa !46
  %23 = sext i32 %22 to i64
  %24 = getelementptr inbounds ptr, ptr %19, i64 %23
  %25 = load ptr, ptr %24, align 8, !tbaa !47
  ret ptr %25
}